; Function Attrs: mustprogress nounwind uwtable
define dso_local noundef range(i32 0, 6) i32 @_ZN4llvm27hasDistributeTransformationEPKNS_4LoopE(ptr noundef %0) local_unnamed_addr #0 {
  %2 = tail call noundef zeroext i1 @_ZN4llvm23getBooleanLoopAttributeEPKNS_4LoopENS_9StringRefE(ptr noundef %0, ptr nonnull @.str.12, i64 27) #17
  br i1 %2, label %5, label %3

3:                                                ; preds = %1
  %4 = tail call noundef zeroext i1 @_ZN4llvm23getBooleanLoopAttributeEPKNS_4LoopENS_9StringRefE(ptr noundef %0, ptr nonnull @.str.28, i64 27) #17
  %. = select i1 %4, i32 2, i32 0
  br label %5

5:                                                ; preds = %3, %1
  %.0 = phi i32 [ 5, %1 ], [ %., %3 ]
  ret i32 %.0
}